; Function Attrs: mustprogress nounwind uwtable
define hidden noundef ptr @_ZN8Interval16split_from_startEi(ptr noundef nonnull align 8 dereferenceable(136) %0, i32 noundef %1) local_unnamed_addr #0 align 2 {
  %3 = tail call noundef ptr @_ZN8Interval15new_split_childEv(ptr noundef nonnull align 8 dereferenceable(136) %0)
  %4 = getelementptr inbounds i8, ptr %0, i64 8
  %5 = load ptr, ptr %4, align 8
  %6 = load i32, ptr %5, align 8
  %7 = getelementptr inbounds i8, ptr %3, i64 8
  %8 = load ptr, ptr %7, align 8
  %9 = load i32, ptr %8, align 8
  %.not.i = icmp sgt i32 %9, %1
  br i1 %.not.i, label %16, label %10

10:                                               ; preds = %2
  %11 = tail call noundef i32 @llvm.smin.i32(i32 %6, i32 %9)
  store i32 %11, ptr %8, align 8
  %12 = load ptr, ptr %7, align 8
  %13 = getelementptr inbounds i8, ptr %12, i64 4
  %14 = load i32, ptr %13, align 4
  %15 = tail call noundef i32 @llvm.smax.i32(i32 %1, i32 %14)
  store i32 %15, ptr %13, align 4
  br label %_ZN8Interval9add_rangeEii.exit

16:                                               ; preds = %2
  %17 = tail call align 8 ptr @llvm.threadlocal.address.p0(ptr align 8 @_ZN6Thread12_thr_currentE)
  %18 = load ptr, ptr %17, align 8
  %19 = getelementptr inbounds i8, ptr %18, i64 1808
  %20 = load ptr, ptr %19, align 8
  %21 = getelementptr inbounds i8, ptr %20, i64 128
  %22 = load ptr, ptr %21, align 8
  %23 = load ptr, ptr %22, align 8
  %24 = getelementptr inbounds i8, ptr %23, i64 40
  %25 = load ptr, ptr %24, align 8
  %26 = getelementptr inbounds i8, ptr %23, i64 32
  %27 = load ptr, ptr %26, align 8
  %28 = ptrtoint ptr %25 to i64
  %29 = ptrtoint ptr %27 to i64
  %30 = sub i64 %28, %29
  %.not.i.i.i.i = icmp ult i64 %30, 16
  br i1 %.not.i.i.i.i, label %33, label %31

31:                                               ; preds = %16
  %32 = getelementptr inbounds i8, ptr %27, i64 16
  store ptr %32, ptr %26, align 8
  br label %_ZN22CompilationResourceObjnwEm.exit.i

33:                                               ; preds = %16
  %34 = tail call noundef ptr @_ZN5Arena4growEmN17AllocFailStrategy13AllocFailEnumE(ptr noundef nonnull align 8 dereferenceable(48) %23, i64 noundef 16, i32 noundef 0) #22
  br label %_ZN22CompilationResourceObjnwEm.exit.i

_ZN22CompilationResourceObjnwEm.exit.i:           ; preds = %33, %31
  %.0.i.i.i.i = phi ptr [ %27, %31 ], [ %34, %33 ]
  %35 = icmp eq ptr %.0.i.i.i.i, null
  br i1 %35, label %40, label %36

36:                                               ; preds = %_ZN22CompilationResourceObjnwEm.exit.i
  %37 = load ptr, ptr %7, align 8
  store i32 %6, ptr %.0.i.i.i.i, align 8
  %38 = getelementptr inbounds i8, ptr %.0.i.i.i.i, i64 4
  store i32 %1, ptr %38, align 4
  %39 = getelementptr inbounds i8, ptr %.0.i.i.i.i, i64 8
  store ptr %37, ptr %39, align 8
  br label %40

40:                                               ; preds = %36, %_ZN22CompilationResourceObjnwEm.exit.i
  store ptr %.0.i.i.i.i, ptr %7, align 8
  br label %_ZN8Interval9add_rangeEii.exit

_ZN8Interval9add_rangeEii.exit:                   ; preds = %10, %40
  %41 = load ptr, ptr %4, align 8
  %42 = getelementptr inbounds i8, ptr %41, i64 4
  %43 = load i32, ptr %42, align 4
  %44 = icmp eq i32 %43, %1
  br i1 %44, label %45, label %48

45:                                               ; preds = %_ZN8Interval9add_rangeEii.exit
  %46 = getelementptr inbounds i8, ptr %41, i64 8
  %47 = load ptr, ptr %46, align 8
  store ptr %47, ptr %4, align 8
  br label %49

48:                                               ; preds = %_ZN8Interval9add_rangeEii.exit
  store i32 %1, ptr %41, align 8
  br label %49

49:                                               ; preds = %48, %45
  ret ptr %3
}